; Function Attrs: nounwind uwtable
define nonnull ptr @l_Lean_isMarkedBorrowed___boxed(ptr noundef %0) local_unnamed_addr #0 {
  %2 = load ptr, ptr @l_Lean_markBorrowed___closed__2, align 8, !tbaa !4
  %3 = tail call ptr @l_Lean_annotation_x3f(ptr noundef %2, ptr noundef %0) #3
  %4 = ptrtoint ptr %0 to i64
  %5 = and i64 %4, 1
  %.not.i = icmp eq i64 %5, 0
  br i1 %.not.i, label %6, label %lean_dec.exit.i

6:                                                ; preds = %1
  %7 = load i32, ptr %0, align 4, !tbaa !8
  %8 = icmp sgt i32 %7, 1
  br i1 %8, label %9, label %11, !prof !11

9:                                                ; preds = %6
  %10 = add nsw i32 %7, -1
  store i32 %10, ptr %0, align 4, !tbaa !8
  br label %lean_dec.exit.i

11:                                               ; preds = %6
  %.not.i8.i = icmp eq i32 %7, 0
  br i1 %.not.i8.i, label %lean_dec.exit.i, label %12

12:                                               ; preds = %11
  tail call void @lean_dec_ref_cold(ptr noundef nonnull %0) #3
  br label %lean_dec.exit.i

lean_dec.exit.i:                                  ; preds = %12, %11, %9, %1
  %13 = ptrtoint ptr %3 to i64
  %14 = and i64 %13, 1
  %.not.i10.i = icmp eq i64 %14, 0
  br i1 %.not.i10.i, label %lean_obj_tag.exit.thread.i, label %lean_obj_tag.exit.i

lean_obj_tag.exit.i:                              ; preds = %lean_dec.exit.i
  %15 = and i64 %13, 8589934590
  %.not = icmp eq i64 %15, 0
  %16 = select i1 %.not, i64 1, i64 3
  br label %lean_is_marked_borrowed.exit

lean_obj_tag.exit.thread.i:                       ; preds = %lean_dec.exit.i
  %17 = getelementptr i8, ptr %3, i64 4
  %.val.i.i = load i32, ptr %17, align 4
  %18 = icmp ult i32 %.val.i.i, 16777216
  br i1 %18, label %lean_is_marked_borrowed.exit, label %.thread.i

.thread.i:                                        ; preds = %lean_obj_tag.exit.thread.i
  %19 = load i32, ptr %3, align 4, !tbaa !8
  %20 = icmp sgt i32 %19, 1
  br i1 %20, label %21, label %23, !prof !11

21:                                               ; preds = %.thread.i
  %22 = add nsw i32 %19, -1
  store i32 %22, ptr %3, align 4, !tbaa !8
  br label %lean_is_marked_borrowed.exit

23:                                               ; preds = %.thread.i
  %.not.i.i = icmp eq i32 %19, 0
  br i1 %.not.i.i, label %lean_is_marked_borrowed.exit, label %24

24:                                               ; preds = %23
  tail call void @lean_dec_ref_cold(ptr noundef nonnull %3) #3
  br label %lean_is_marked_borrowed.exit

lean_is_marked_borrowed.exit:                     ; preds = %lean_obj_tag.exit.i, %lean_obj_tag.exit.thread.i, %21, %23, %24
  %.0.i = phi i64 [ 1, %lean_obj_tag.exit.thread.i ], [ 3, %24 ], [ 3, %23 ], [ 3, %21 ], [ %16, %lean_obj_tag.exit.i ]
  %25 = inttoptr i64 %.0.i to ptr
  ret ptr %25
}